; Function Attrs: mustprogress uwtable
define hidden noundef zeroext i1 @_ZNK14iexpr_inverter7uncnstrEjPKP4expr(ptr noundef nonnull align 8 dereferenceable(57) %this, i32 noundef %num, ptr nocapture noundef readonly %args) local_unnamed_addr #6 align 2 {
entry:
  %__args.addr.i = alloca ptr, align 8
  %cmp4 = icmp eq i32 %num, 0
  br i1 %cmp4, label %return, label %for.body.lr.ph

for.body.lr.ph:                                   ; preds = %entry
  %_M_manager.i.i = getelementptr inbounds i8, ptr %this, i64 32
  %m_is_var = getelementptr inbounds i8, ptr %this, i64 16
  %_M_invoker.i = getelementptr inbounds i8, ptr %this, i64 40
  %0 = zext i32 %num to i64
  br label %for.body

for.cond:                                         ; preds = %_ZNKSt8functionIFbP4exprEEclES1_.exit
  %indvars.iv.next = add nuw nsw i64 %indvars.iv, 1
  %cmp = icmp uge i64 %indvars.iv.next, %0
  %exitcond = icmp eq i64 %indvars.iv.next, %0
  br i1 %exitcond, label %return, label %for.body, !llvm.loop !4

for.body:                                         ; preds = %for.body.lr.ph, %for.cond
  %indvars.iv = phi i64 [ 0, %for.body.lr.ph ], [ %indvars.iv.next, %for.cond ]
  %cmp6 = phi i1 [ false, %for.body.lr.ph ], [ %cmp, %for.cond ]
  %arrayidx = getelementptr inbounds ptr, ptr %args, i64 %indvars.iv
  %1 = load ptr, ptr %arrayidx, align 8
  call void @llvm.lifetime.start.p0(i64 8, ptr nonnull %__args.addr.i)
  store ptr %1, ptr %__args.addr.i, align 8
  %2 = load ptr, ptr %_M_manager.i.i, align 8
  %tobool.not.i.i = icmp eq ptr %2, null
  br i1 %tobool.not.i.i, label %if.then.i, label %_ZNKSt8functionIFbP4exprEEclES1_.exit

if.then.i:                                        ; preds = %for.body
  call void @_ZSt25__throw_bad_function_callv() #18
  unreachable

_ZNKSt8functionIFbP4exprEEclES1_.exit:            ; preds = %for.body
  %3 = load ptr, ptr %_M_invoker.i, align 8
  %call2.i = call noundef zeroext i1 %3(ptr noundef nonnull align 8 dereferenceable(16) %m_is_var, ptr noundef nonnull align 8 dereferenceable(8) %__args.addr.i)
  call void @llvm.lifetime.end.p0(i64 8, ptr nonnull %__args.addr.i)
  br i1 %call2.i, label %for.cond, label %return

return:                                           ; preds = %_ZNKSt8functionIFbP4exprEEclES1_.exit, %for.cond, %entry
  %cmp.lcssa = phi i1 [ true, %entry ], [ %cmp, %for.cond ], [ %cmp6, %_ZNKSt8functionIFbP4exprEEclES1_.exit ]
  ret i1 %cmp.lcssa
}